target datalayout = "e-m:e-p270:32:32-p271:32:32-p272:64:64-i64:64-i128:128-f80:128-n8:16:32:64-S128"
target triple = "x86_64-pc-linux-gnu"

%struct.BiquadsContext = type { ptr, i32, i32, i32, i32, i32, i32, i32, i32, double, double, double, double, ptr, %struct.AVChannelLayout, i32, i32, [3 x double], [3 x double], [3 x float], [3 x float], [3 x double], [3 x double], [3 x ptr], ptr, [2 x ptr], i32, i64, i32, ptr }
%struct.AVChannelLayout = type { i32, i32, %union.anon.1, ptr }
%union.anon.1 = type { i64 }

; Function Attrs: nounwind uwtable
define internal void @biquad_dii_s16(ptr noundef %0, ptr noundef %1, ptr noundef %2, i32 noundef %3, ptr noundef %4, ptr noundef %5, i32 noundef %6) #1 {
  %8 = alloca ptr, align 8
  %9 = alloca ptr, align 8
  %10 = alloca ptr, align 8
  %11 = alloca i32, align 4
  %12 = alloca ptr, align 8
  %13 = alloca ptr, align 8
  %14 = alloca i32, align 4
  %15 = alloca ptr, align 8
  %16 = alloca ptr, align 8
  %17 = alloca ptr, align 8
  %18 = alloca ptr, align 8
  %19 = alloca ptr, align 8
  %20 = alloca float, align 4
  %21 = alloca float, align 4
  %22 = alloca float, align 4
  %23 = alloca float, align 4
  %24 = alloca float, align 4
  %25 = alloca float, align 4
  %26 = alloca float, align 4
  %27 = alloca float, align 4
  %28 = alloca float, align 4
  %29 = alloca float, align 4
  %30 = alloca float, align 4
  %31 = alloca float, align 4
  %32 = alloca i32, align 4
  store ptr %0, ptr %8, align 8, !tbaa !22
  store ptr %1, ptr %9, align 8, !tbaa !36
  store ptr %2, ptr %10, align 8, !tbaa !36
  store i32 %3, ptr %11, align 4, !tbaa !31
  store ptr %4, ptr %12, align 8, !tbaa !36
  store ptr %5, ptr %13, align 8, !tbaa !82
  store i32 %6, ptr %14, align 4, !tbaa !31
  call void @llvm.lifetime.start.p0(i64 8, ptr %15) #11
  %33 = load ptr, ptr %9, align 8, !tbaa !36
  store ptr %33, ptr %15, align 8, !tbaa !83
  call void @llvm.lifetime.start.p0(i64 8, ptr %16) #11
  %34 = load ptr, ptr %10, align 8, !tbaa !36
  store ptr %34, ptr %16, align 8, !tbaa !83
  call void @llvm.lifetime.start.p0(i64 8, ptr %17) #11
  %35 = load ptr, ptr %12, align 8, !tbaa !36
  store ptr %35, ptr %17, align 8, !tbaa !85
  call void @llvm.lifetime.start.p0(i64 8, ptr %18) #11
  %36 = load ptr, ptr %8, align 8, !tbaa !22
  %37 = getelementptr inbounds nuw %struct.BiquadsContext, ptr %36, i32 0, i32 19
  %38 = getelementptr inbounds [3 x float], ptr %37, i64 0, i64 0
  store ptr %38, ptr %18, align 8, !tbaa !85
  call void @llvm.lifetime.start.p0(i64 8, ptr %19) #11
  %39 = load ptr, ptr %8, align 8, !tbaa !22
  %40 = getelementptr inbounds nuw %struct.BiquadsContext, ptr %39, i32 0, i32 20
  %41 = getelementptr inbounds [3 x float], ptr %40, i64 0, i64 0
  store ptr %41, ptr %19, align 8, !tbaa !85
  call void @llvm.lifetime.start.p0(i64 4, ptr %20) #11
  %42 = load ptr, ptr %18, align 8, !tbaa !85
  %43 = getelementptr inbounds float, ptr %42, i64 1
  %44 = load float, ptr %43, align 4, !tbaa !80
  %45 = fneg nsz float %44
  store float %45, ptr %20, align 4, !tbaa !80
  call void @llvm.lifetime.start.p0(i64 4, ptr %21) #11
  %46 = load ptr, ptr %18, align 8, !tbaa !85
  %47 = getelementptr inbounds float, ptr %46, i64 2
  %48 = load float, ptr %47, align 4, !tbaa !80
  %49 = fneg nsz float %48
  store float %49, ptr %21, align 4, !tbaa !80
  call void @llvm.lifetime.start.p0(i64 4, ptr %22) #11
  %50 = load ptr, ptr %19, align 8, !tbaa !85
  %51 = getelementptr inbounds float, ptr %50, i64 0
  %52 = load float, ptr %51, align 4, !tbaa !80
  store float %52, ptr %22, align 4, !tbaa !80
  call void @llvm.lifetime.start.p0(i64 4, ptr %23) #11
  %53 = load ptr, ptr %19, align 8, !tbaa !85
  %54 = getelementptr inbounds float, ptr %53, i64 1
  %55 = load float, ptr %54, align 4, !tbaa !80
  store float %55, ptr %23, align 4, !tbaa !80
  call void @llvm.lifetime.start.p0(i64 4, ptr %24) #11
  %56 = load ptr, ptr %19, align 8, !tbaa !85
  %57 = getelementptr inbounds float, ptr %56, i64 2
  %58 = load float, ptr %57, align 4, !tbaa !80
  store float %58, ptr %24, align 4, !tbaa !80
  call void @llvm.lifetime.start.p0(i64 4, ptr %25) #11
  %59 = load ptr, ptr %17, align 8, !tbaa !85
  %60 = getelementptr inbounds float, ptr %59, i64 0
  %61 = load float, ptr %60, align 4, !tbaa !80
  store float %61, ptr %25, align 4, !tbaa !80
  call void @llvm.lifetime.start.p0(i64 4, ptr %26) #11
  %62 = load ptr, ptr %17, align 8, !tbaa !85
  %63 = getelementptr inbounds float, ptr %62, i64 1
  %64 = load float, ptr %63, align 4, !tbaa !80
  store float %64, ptr %26, align 4, !tbaa !80
  call void @llvm.lifetime.start.p0(i64 4, ptr %27) #11
  %65 = load ptr, ptr %8, align 8, !tbaa !22
  %66 = getelementptr inbounds nuw %struct.BiquadsContext, ptr %65, i32 0, i32 12
  %67 = load double, ptr %66, align 8, !tbaa !87
  %68 = fptrunc nsz double %67 to float
  store float %68, ptr %27, align 4, !tbaa !80
  call void @llvm.lifetime.start.p0(i64 4, ptr %28) #11
  %69 = load float, ptr %27, align 4, !tbaa !80
  %70 = fpext nsz float %69 to double
  %71 = fsub nsz double 1.000000e+00, %70
  %72 = fptrunc nsz double %71 to float
  store float %72, ptr %28, align 4, !tbaa !80
  call void @llvm.lifetime.start.p0(i64 4, ptr %29) #11
  call void @llvm.lifetime.start.p0(i64 4, ptr %30) #11
  call void @llvm.lifetime.start.p0(i64 4, ptr %31) #11
  call void @llvm.lifetime.start.p0(i64 4, ptr %32) #11
  store i32 0, ptr %32, align 4, !tbaa !31
  br label %73

73:                                               ; preds = %150, %7
  %74 = load i32, ptr %32, align 4, !tbaa !31
  %75 = load i32, ptr %11, align 4, !tbaa !31
  %76 = icmp slt i32 %74, %75
  br i1 %76, label %78, label %77

77:                                               ; preds = %73
  call void @llvm.lifetime.end.p0(i64 4, ptr %32) #11
  br label %153

78:                                               ; preds = %73
  %79 = load ptr, ptr %15, align 8, !tbaa !83
  %80 = load i32, ptr %32, align 4, !tbaa !31
  %81 = sext i32 %80 to i64
  %82 = getelementptr inbounds i16, ptr %79, i64 %81
  %83 = load i16, ptr %82, align 2, !tbaa !88
  %84 = sitofp i16 %83 to float
  store float %84, ptr %29, align 4, !tbaa !80
  %85 = load float, ptr %29, align 4, !tbaa !80
  %86 = load float, ptr %20, align 4, !tbaa !80
  %87 = load float, ptr %25, align 4, !tbaa !80
  %88 = call nsz float @llvm.fmuladd.f32(float %86, float %87, float %85)
  %89 = load float, ptr %21, align 4, !tbaa !80
  %90 = load float, ptr %26, align 4, !tbaa !80
  %91 = call nsz float @llvm.fmuladd.f32(float %89, float %90, float %88)
  store float %91, ptr %31, align 4, !tbaa !80
  %92 = load float, ptr %22, align 4, !tbaa !80
  %93 = load float, ptr %31, align 4, !tbaa !80
  %94 = load float, ptr %23, align 4, !tbaa !80
  %95 = load float, ptr %25, align 4, !tbaa !80
  %96 = fmul nsz float %94, %95
  %97 = call nsz float @llvm.fmuladd.f32(float %92, float %93, float %96)
  %98 = load float, ptr %24, align 4, !tbaa !80
  %99 = load float, ptr %26, align 4, !tbaa !80
  %100 = call nsz float @llvm.fmuladd.f32(float %98, float %99, float %97)
  store float %100, ptr %30, align 4, !tbaa !80
  %101 = load float, ptr %25, align 4, !tbaa !80
  store float %101, ptr %26, align 4, !tbaa !80
  %102 = load float, ptr %31, align 4, !tbaa !80
  store float %102, ptr %25, align 4, !tbaa !80
  %103 = load float, ptr %30, align 4, !tbaa !80
  %104 = load float, ptr %27, align 4, !tbaa !80
  %105 = load float, ptr %29, align 4, !tbaa !80
  %106 = load float, ptr %28, align 4, !tbaa !80
  %107 = fmul nsz float %105, %106
  %108 = call nsz float @llvm.fmuladd.f32(float %103, float %104, float %107)
  store float %108, ptr %30, align 4, !tbaa !80
  %109 = load i32, ptr %14, align 4, !tbaa !31
  %110 = icmp ne i32 %109, 0
  br i1 %110, label %111, label %118

111:                                              ; preds = %78
  %112 = load float, ptr %29, align 4, !tbaa !80
  %113 = fptosi float %112 to i16
  %114 = load ptr, ptr %16, align 8, !tbaa !83
  %115 = load i32, ptr %32, align 4, !tbaa !31
  %116 = sext i32 %115 to i64
  %117 = getelementptr inbounds i16, ptr %114, i64 %116
  store i16 %113, ptr %117, align 2, !tbaa !88
  br label %149

118:                                              ; preds = %78
  %119 = load float, ptr %30, align 4, !tbaa !80
  %120 = fcmp nsz olt float %119, -3.276800e+04
  br i1 %120, label %121, label %129

121:                                              ; preds = %118
  %122 = load ptr, ptr %13, align 8, !tbaa !82
  %123 = load i32, ptr %122, align 4, !tbaa !31
  %124 = add nsw i32 %123, 1
  store i32 %124, ptr %122, align 4, !tbaa !31
  %125 = load ptr, ptr %16, align 8, !tbaa !83
  %126 = load i32, ptr %32, align 4, !tbaa !31
  %127 = sext i32 %126 to i64
  %128 = getelementptr inbounds i16, ptr %125, i64 %127
  store i16 -32768, ptr %128, align 2, !tbaa !88
  br label %148

129:                                              ; preds = %118
  %130 = load float, ptr %30, align 4, !tbaa !80
  %131 = fcmp nsz ogt float %130, 3.276700e+04
  br i1 %131, label %132, label %140

132:                                              ; preds = %129
  %133 = load ptr, ptr %13, align 8, !tbaa !82
  %134 = load i32, ptr %133, align 4, !tbaa !31
  %135 = add nsw i32 %134, 1
  store i32 %135, ptr %133, align 4, !tbaa !31
  %136 = load ptr, ptr %16, align 8, !tbaa !83
  %137 = load i32, ptr %32, align 4, !tbaa !31
  %138 = sext i32 %137 to i64
  %139 = getelementptr inbounds i16, ptr %136, i64 %138
  store i16 32767, ptr %139, align 2, !tbaa !88
  br label %147

140:                                              ; preds = %129
  %141 = load float, ptr %30, align 4, !tbaa !80
  %142 = fptosi float %141 to i16
  %143 = load ptr, ptr %16, align 8, !tbaa !83
  %144 = load i32, ptr %32, align 4, !tbaa !31
  %145 = sext i32 %144 to i64
  %146 = getelementptr inbounds i16, ptr %143, i64 %145
  store i16 %142, ptr %146, align 2, !tbaa !88
  br label %147

147:                                              ; preds = %140, %132
  br label %148

148:                                              ; preds = %147, %121
  br label %149

149:                                              ; preds = %148, %111
  br label %150

150:                                              ; preds = %149
  %151 = load i32, ptr %32, align 4, !tbaa !31
  %152 = add nsw i32 %151, 1
  store i32 %152, ptr %32, align 4, !tbaa !31
  br label %73, !llvm.loop !95

153:                                              ; preds = %77
  %154 = load float, ptr %25, align 4, !tbaa !80
  %155 = load ptr, ptr %17, align 8, !tbaa !85
  %156 = getelementptr inbounds float, ptr %155, i64 0
  store float %154, ptr %156, align 4, !tbaa !80
  %157 = load float, ptr %26, align 4, !tbaa !80
  %158 = load ptr, ptr %17, align 8, !tbaa !85
  %159 = getelementptr inbounds float, ptr %158, i64 1
  store float %157, ptr %159, align 4, !tbaa !80
  call void @llvm.lifetime.end.p0(i64 4, ptr %31) #11
  call void @llvm.lifetime.end.p0(i64 4, ptr %30) #11
  call void @llvm.lifetime.end.p0(i64 4, ptr %29) #11
  call void @llvm.lifetime.end.p0(i64 4, ptr %28) #11
  call void @llvm.lifetime.end.p0(i64 4, ptr %27) #11
  call void @llvm.lifetime.end.p0(i64 4, ptr %26) #11
  call void @llvm.lifetime.end.p0(i64 4, ptr %25) #11
  call void @llvm.lifetime.end.p0(i64 4, ptr %24) #11
  call void @llvm.lifetime.end.p0(i64 4, ptr %23) #11
  call void @llvm.lifetime.end.p0(i64 4, ptr %22) #11
  call void @llvm.lifetime.end.p0(i64 4, ptr %21) #11
  call void @llvm.lifetime.end.p0(i64 4, ptr %20) #11
  call void @llvm.lifetime.end.p0(i64 8, ptr %19) #11
  call void @llvm.lifetime.end.p0(i64 8, ptr %18) #11
  call void @llvm.lifetime.end.p0(i64 8, ptr %17) #11
  call void @llvm.lifetime.end.p0(i64 8, ptr %16) #11
  call void @llvm.lifetime.end.p0(i64 8, ptr %15) #11
  ret void
}