; Function Attrs: nofree norecurse nosync nounwind memory(argmem: readwrite) uwtable
define internal void @biquad_dii_s16(ptr noundef readonly captures(none) %0, ptr noundef readonly captures(none) %1, ptr noundef writeonly captures(none) %2, i32 noundef %3, ptr noundef captures(none) %4, ptr noundef captures(none) %5, i32 noundef %6) #7 {
  %8 = getelementptr inbounds nuw i8, ptr %0, i64 172
  %9 = getelementptr inbounds nuw i8, ptr %0, i64 164
  %10 = load float, ptr %9, align 4, !tbaa !73
  %11 = fneg nsz float %10
  %12 = getelementptr inbounds nuw i8, ptr %0, i64 168
  %13 = load float, ptr %12, align 4, !tbaa !73
  %14 = fneg nsz float %13
  %15 = load float, ptr %8, align 4, !tbaa !73
  %16 = getelementptr inbounds nuw i8, ptr %0, i64 176
  %17 = load float, ptr %16, align 4, !tbaa !73
  %18 = getelementptr inbounds nuw i8, ptr %0, i64 180
  %19 = load float, ptr %18, align 4, !tbaa !73
  %20 = load float, ptr %4, align 4, !tbaa !73
  %21 = getelementptr inbounds nuw i8, ptr %4, i64 4
  %22 = load float, ptr %21, align 4, !tbaa !73
  %23 = getelementptr inbounds nuw i8, ptr %0, i64 64
  %24 = load double, ptr %23, align 8, !tbaa !75
  %25 = fptrunc nsz double %24 to float
  %26 = fsub nsz float 1.000000e+00, %25
  %27 = icmp sgt i32 %3, 0
  br i1 %27, label %.lr.ph, label %._crit_edge

.lr.ph:                                           ; preds = %7
  %.not = icmp eq i32 %6, 0
  %wide.trip.count68 = zext nneg i32 %3 to i64
  br i1 %.not, label %.lr.ph.split.us, label %.lr.ph.split

.lr.ph.split.us:                                  ; preds = %.lr.ph, %49
  %indvars.iv65 = phi i64 [ %indvars.iv.next66, %49 ], [ 0, %.lr.ph ]
  %.05458.us = phi float [ %32, %49 ], [ %20, %.lr.ph ]
  %.05557.us = phi float [ %.05458.us, %49 ], [ %22, %.lr.ph ]
  %28 = getelementptr inbounds nuw i16, ptr %1, i64 %indvars.iv65
  %29 = load i16, ptr %28, align 2, !tbaa !76
  %30 = sitofp i16 %29 to float
  %31 = tail call nsz float @llvm.fmuladd.f32(float %11, float %.05458.us, float %30)
  %32 = tail call nsz float @llvm.fmuladd.f32(float %14, float %.05557.us, float %31)
  %33 = fmul nsz float %17, %.05458.us
  %34 = tail call nsz float @llvm.fmuladd.f32(float %15, float %32, float %33)
  %35 = tail call nsz float @llvm.fmuladd.f32(float %19, float %.05557.us, float %34)
  %36 = fmul nsz float %26, %30
  %37 = tail call nsz float @llvm.fmuladd.f32(float %35, float %25, float %36)
  %38 = fcmp nsz olt float %37, -3.276800e+04
  br i1 %38, label %46, label %39

39:                                               ; preds = %.lr.ph.split.us
  %40 = fcmp nsz ogt float %37, 3.276700e+04
  br i1 %40, label %43, label %41

41:                                               ; preds = %39
  %42 = fptosi float %37 to i16
  br label %49

43:                                               ; preds = %39
  %44 = load i32, ptr %5, align 4, !tbaa !30
  %45 = add nsw i32 %44, 1
  store i32 %45, ptr %5, align 4, !tbaa !30
  br label %49

46:                                               ; preds = %.lr.ph.split.us
  %47 = load i32, ptr %5, align 4, !tbaa !30
  %48 = add nsw i32 %47, 1
  store i32 %48, ptr %5, align 4, !tbaa !30
  br label %49

49:                                               ; preds = %46, %43, %41
  %.sink = phi i16 [ -32768, %46 ], [ 32767, %43 ], [ %42, %41 ]
  %50 = getelementptr inbounds nuw i16, ptr %2, i64 %indvars.iv65
  store i16 %.sink, ptr %50, align 2, !tbaa !76
  %indvars.iv.next66 = add nuw nsw i64 %indvars.iv65, 1
  %exitcond69.not = icmp eq i64 %indvars.iv.next66, %wide.trip.count68
  br i1 %exitcond69.not, label %._crit_edge, label %.lr.ph.split.us, !llvm.loop !82

._crit_edge:                                      ; preds = %.lr.ph.split, %49, %7
  %.055.lcssa = phi float [ %22, %7 ], [ %.05458.us, %49 ], [ %.05458, %.lr.ph.split ]
  %.054.lcssa = phi float [ %20, %7 ], [ %32, %49 ], [ %55, %.lr.ph.split ]
  store float %.054.lcssa, ptr %4, align 4, !tbaa !73
  store float %.055.lcssa, ptr %21, align 4, !tbaa !73
  ret void

.lr.ph.split:                                     ; preds = %.lr.ph, %.lr.ph.split
  %indvars.iv = phi i64 [ %indvars.iv.next, %.lr.ph.split ], [ 0, %.lr.ph ]
  %.05458 = phi float [ %55, %.lr.ph.split ], [ %20, %.lr.ph ]
  %.05557 = phi float [ %.05458, %.lr.ph.split ], [ %22, %.lr.ph ]
  %51 = getelementptr inbounds nuw i16, ptr %1, i64 %indvars.iv
  %52 = load i16, ptr %51, align 2, !tbaa !76
  %53 = sitofp i16 %52 to float
  %54 = tail call nsz float @llvm.fmuladd.f32(float %11, float %.05458, float %53)
  %55 = tail call nsz float @llvm.fmuladd.f32(float %14, float %.05557, float %54)
  %56 = getelementptr inbounds nuw i16, ptr %2, i64 %indvars.iv
  store i16 %52, ptr %56, align 2, !tbaa !76
  %indvars.iv.next = add nuw nsw i64 %indvars.iv, 1
  %exitcond.not = icmp eq i64 %indvars.iv.next, %wide.trip.count68
  br i1 %exitcond.not, label %._crit_edge, label %.lr.ph.split, !llvm.loop !82
}